; Function Attrs: nounwind uwtable
define ptr @l_Lean_Meta_visitLambda_visit___at_Lean_Meta_forEachExpr_x27_visit___spec__3___rarg___lambda__2___boxed(ptr noundef %0, ptr noundef %1, ptr noundef %2, ptr noundef %3, ptr noundef %4, ptr noundef %5, ptr noundef %6, ptr noundef %7, ptr noundef %8, ptr noundef %9, ptr noundef %10) #0 {
  %12 = ptrtoint ptr %7 to i64
  %13 = lshr i64 %12, 1
  %14 = trunc i64 %13 to i8
  %15 = and i64 %12, 1
  %.not = icmp eq i64 %15, 0
  br i1 %.not, label %16, label %lean_dec.exit14

16:                                               ; preds = %11
  %17 = load i32, ptr %7, align 4, !tbaa !4
  %18 = icmp sgt i32 %17, 1
  br i1 %18, label %19, label %21, !prof !13

19:                                               ; preds = %16
  %20 = add nsw i32 %17, -1
  store i32 %20, ptr %7, align 4, !tbaa !4
  br label %lean_dec.exit14

21:                                               ; preds = %16
  %.not.i = icmp eq i32 %17, 0
  br i1 %.not.i, label %lean_dec.exit14, label %22

22:                                               ; preds = %21
  tail call void @lean_dec_ref_cold(ptr noundef nonnull %7) #4
  br label %lean_dec.exit14

lean_dec.exit14:                                  ; preds = %22, %21, %19, %11
  %23 = tail call ptr @l_Lean_Meta_visitLambda_visit___at_Lean_Meta_forEachExpr_x27_visit___spec__3___rarg___lambda__2(ptr noundef %0, ptr noundef %1, ptr noundef %2, ptr noundef %3, ptr noundef %4, ptr noundef %5, ptr noundef %6, i8 noundef zeroext %14, ptr noundef %8, ptr noundef %9, ptr poison)
  %24 = ptrtoint ptr %10 to i64
  %25 = and i64 %24, 1
  %.not17 = icmp eq i64 %25, 0
  br i1 %.not17, label %26, label %lean_dec.exit

26:                                               ; preds = %lean_dec.exit14
  %27 = load i32, ptr %10, align 4, !tbaa !4
  %28 = icmp sgt i32 %27, 1
  br i1 %28, label %29, label %31, !prof !13

29:                                               ; preds = %26
  %30 = add nsw i32 %27, -1
  store i32 %30, ptr %10, align 4, !tbaa !4
  br label %lean_dec.exit

31:                                               ; preds = %26
  %.not.i15 = icmp eq i32 %27, 0
  br i1 %.not.i15, label %lean_dec.exit, label %32

32:                                               ; preds = %31
  tail call void @lean_dec_ref_cold(ptr noundef nonnull %10) #4
  br label %lean_dec.exit

lean_dec.exit:                                    ; preds = %32, %31, %29, %lean_dec.exit14
  ret ptr %23
}